target datalayout = "e-m:e-p270:32:32-p271:32:32-p272:64:64-i64:64-i128:128-f80:128-n8:16:32:64-S128"
target triple = "x86_64-pc-linux-gnu"

%union.AVRefStructOpaque = type { ptr }
%struct.RefCount = type { i64, %union.AVRefStructOpaque, ptr, ptr }
%struct.AVRefStructPool = type { i64, %union.AVRefStructOpaque, ptr, ptr, ptr, ptr, i32, i32, i32, i64, ptr, %union.pthread_mutex_t }
%union.pthread_mutex_t = type { %struct.__pthread_mutex_s }
%struct.__pthread_mutex_s = type { i32, i32, i32, i32, i32, i16, i16, %struct.__pthread_internal_list }
%struct.__pthread_internal_list = type { ptr, ptr }

; Function Attrs: nounwind uwtable
define internal ptr @get_userdata(ptr noundef %0) #0 {
  %2 = alloca ptr, align 8
  store ptr %0, ptr %2, align 8, !tbaa !10
  %3 = load ptr, ptr %2, align 8, !tbaa !10
  %4 = getelementptr inbounds nuw i8, ptr %3, i64 32
  ret ptr %4
}

; Function Attrs: nounwind uwtable
define internal void @pool_free_entry(ptr noundef %0, ptr noundef %1) #0 {
  %3 = alloca ptr, align 8
  %4 = alloca ptr, align 8
  store ptr %0, ptr %3, align 8, !tbaa !19
  store ptr %1, ptr %4, align 8, !tbaa !12
  %5 = load ptr, ptr %3, align 8, !tbaa !19
  %6 = getelementptr inbounds nuw %struct.AVRefStructPool, ptr %5, i32 0, i32 4
  %7 = load ptr, ptr %6, align 8, !tbaa !28
  %8 = icmp ne ptr %7, null
  br i1 %8, label %9, label %19

9:                                                ; preds = %2
  %10 = load ptr, ptr %3, align 8, !tbaa !19
  %11 = getelementptr inbounds nuw %struct.AVRefStructPool, ptr %10, i32 0, i32 4
  %12 = load ptr, ptr %11, align 8, !tbaa !28
  %13 = load ptr, ptr %3, align 8, !tbaa !19
  %14 = getelementptr inbounds nuw %struct.AVRefStructPool, ptr %13, i32 0, i32 1
  %15 = load ptr, ptr %4, align 8, !tbaa !12
  %16 = call ptr @get_userdata(ptr noundef %15)
  %17 = getelementptr inbounds nuw %union.AVRefStructOpaque, ptr %14, i32 0, i32 0
  %18 = load ptr, ptr %17, align 8
  call void %12(ptr %18, ptr noundef %16)
  br label %19

19:                                               ; preds = %9, %2
  %20 = load ptr, ptr %4, align 8, !tbaa !12
  call void @av_free(ptr noundef %20)
  ret void
}

; Function Attrs: nounwind uwtable
define internal void @refstruct_pool_uninit(ptr %0, ptr noundef %1) #0 {
  %3 = alloca %union.AVRefStructOpaque, align 8
  %4 = alloca ptr, align 8
  %5 = alloca ptr, align 8
  %6 = alloca ptr, align 8
  %7 = alloca ptr, align 8
  %8 = getelementptr inbounds nuw %union.AVRefStructOpaque, ptr %3, i32 0, i32 0
  store ptr %0, ptr %8, align 8
  store ptr %1, ptr %4, align 8, !tbaa !10
  call void @llvm.lifetime.start.p0(i64 8, ptr %5) #7
  %9 = load ptr, ptr %4, align 8, !tbaa !10
  store ptr %9, ptr %5, align 8, !tbaa !19
  call void @llvm.lifetime.start.p0(i64 8, ptr %6) #7
  %10 = load ptr, ptr %5, align 8, !tbaa !19
  %11 = getelementptr inbounds nuw %struct.AVRefStructPool, ptr %10, i32 0, i32 11
  %12 = call i32 @pthread_mutex_lock(ptr noundef %11) #7
  %13 = load ptr, ptr %5, align 8, !tbaa !19
  %14 = getelementptr inbounds nuw %struct.AVRefStructPool, ptr %13, i32 0, i32 6
  store i32 1, ptr %14, align 8, !tbaa !30
  %15 = load ptr, ptr %5, align 8, !tbaa !19
  %16 = getelementptr inbounds nuw %struct.AVRefStructPool, ptr %15, i32 0, i32 10
  %17 = load ptr, ptr %16, align 8, !tbaa !21
  store ptr %17, ptr %6, align 8, !tbaa !12
  %18 = load ptr, ptr %5, align 8, !tbaa !19
  %19 = getelementptr inbounds nuw %struct.AVRefStructPool, ptr %18, i32 0, i32 10
  store ptr null, ptr %19, align 8, !tbaa !21
  %20 = load ptr, ptr %5, align 8, !tbaa !19
  %21 = getelementptr inbounds nuw %struct.AVRefStructPool, ptr %20, i32 0, i32 11
  %22 = call i32 @pthread_mutex_unlock(ptr noundef %21) #7
  br label %23

23:                                               ; preds = %26, %2
  %24 = load ptr, ptr %6, align 8, !tbaa !12
  %25 = icmp ne ptr %24, null
  br i1 %25, label %26, label %33

26:                                               ; preds = %23
  call void @llvm.lifetime.start.p0(i64 8, ptr %7) #7
  %27 = load ptr, ptr %6, align 8, !tbaa !12
  %28 = getelementptr inbounds nuw %struct.RefCount, ptr %27, i32 0, i32 1
  %29 = load ptr, ptr %28, align 8, !tbaa !14
  store ptr %29, ptr %7, align 8, !tbaa !10
  %30 = load ptr, ptr %5, align 8, !tbaa !19
  %31 = load ptr, ptr %6, align 8, !tbaa !12
  call void @pool_free_entry(ptr noundef %30, ptr noundef %31)
  %32 = load ptr, ptr %7, align 8, !tbaa !10
  store ptr %32, ptr %6, align 8, !tbaa !12
  call void @llvm.lifetime.end.p0(i64 8, ptr %7) #7
  br label %23, !llvm.loop !31

33:                                               ; preds = %23
  call void @llvm.lifetime.end.p0(i64 8, ptr %6) #7
  call void @llvm.lifetime.end.p0(i64 8, ptr %5) #7
  ret void
}