; Function Attrs: nounwind uwtable
define internal void @refstruct_pool_uninit(ptr readnone captures(none) %0, ptr noundef %1) #0 {
  %3 = getelementptr inbounds nuw i8, ptr %1, i64 80
  %4 = tail call i32 @pthread_mutex_lock(ptr noundef nonnull %3) #5
  %5 = getelementptr inbounds nuw i8, ptr %1, i64 48
  store i32 1, ptr %5, align 8, !tbaa !23
  %6 = getelementptr inbounds nuw i8, ptr %1, i64 72
  %7 = load ptr, ptr %6, align 8, !tbaa !11
  store ptr null, ptr %6, align 8, !tbaa !11
  %8 = tail call i32 @pthread_mutex_unlock(ptr noundef nonnull %3) #5
  %.not11 = icmp eq ptr %7, null
  br i1 %.not11, label %._crit_edge, label %.lr.ph

.lr.ph:                                           ; preds = %2
  %9 = getelementptr inbounds nuw i8, ptr %1, i64 32
  %10 = getelementptr inbounds nuw i8, ptr %1, i64 8
  br label %11

11:                                               ; preds = %.lr.ph, %pool_free_entry.exit
  %.012 = phi ptr [ %7, %.lr.ph ], [ %13, %pool_free_entry.exit ]
  %12 = getelementptr inbounds nuw i8, ptr %.012, i64 8
  %13 = load ptr, ptr %12, align 8, !tbaa !4
  %14 = load ptr, ptr %9, align 8, !tbaa !21
  %.not.i = icmp eq ptr %14, null
  br i1 %.not.i, label %pool_free_entry.exit, label %15

15:                                               ; preds = %11
  %16 = getelementptr inbounds nuw i8, ptr %.012, i64 32
  %17 = load ptr, ptr %10, align 8
  tail call void %14(ptr %17, ptr noundef nonnull %16) #5
  br label %pool_free_entry.exit

pool_free_entry.exit:                             ; preds = %11, %15
  tail call void @av_free(ptr noundef nonnull %.012) #5
  %.not = icmp eq ptr %13, null
  br i1 %.not, label %._crit_edge, label %11, !llvm.loop !24

._crit_edge:                                      ; preds = %pool_free_entry.exit, %2
  ret void
}